
obj/app_print_backtrace:     file format elf64-littleriscv


Disassembly of section .text:

0000000081000000 <f8>:
    81000000:	1141                	addi	sp,sp,-16
    81000002:	e406                	sd	ra,8(sp)
    81000004:	e022                	sd	s0,0(sp)
    81000006:	0800                	addi	s0,sp,16
    81000008:	451d                	li	a0,7
    8100000a:	190000ef          	jal	ra,8100019a <print_backtrace>
    8100000e:	60a2                	ld	ra,8(sp)
    81000010:	6402                	ld	s0,0(sp)
    81000012:	0141                	addi	sp,sp,16
    81000014:	8082                	ret

0000000081000016 <f7>:
    81000016:	1141                	addi	sp,sp,-16
    81000018:	e406                	sd	ra,8(sp)
    8100001a:	e022                	sd	s0,0(sp)
    8100001c:	0800                	addi	s0,sp,16
    8100001e:	fe3ff0ef          	jal	ra,81000000 <f8>
    81000022:	60a2                	ld	ra,8(sp)
    81000024:	6402                	ld	s0,0(sp)
    81000026:	0141                	addi	sp,sp,16
    81000028:	8082                	ret

000000008100002a <f6>:
    8100002a:	1141                	addi	sp,sp,-16
    8100002c:	e406                	sd	ra,8(sp)
    8100002e:	e022                	sd	s0,0(sp)
    81000030:	0800                	addi	s0,sp,16
    81000032:	fe5ff0ef          	jal	ra,81000016 <f7>
    81000036:	60a2                	ld	ra,8(sp)
    81000038:	6402                	ld	s0,0(sp)
    8100003a:	0141                	addi	sp,sp,16
    8100003c:	8082                	ret

000000008100003e <f5>:
    8100003e:	1141                	addi	sp,sp,-16
    81000040:	e406                	sd	ra,8(sp)
    81000042:	e022                	sd	s0,0(sp)
    81000044:	0800                	addi	s0,sp,16
    81000046:	fe5ff0ef          	jal	ra,8100002a <f6>
    8100004a:	60a2                	ld	ra,8(sp)
    8100004c:	6402                	ld	s0,0(sp)
    8100004e:	0141                	addi	sp,sp,16
    81000050:	8082                	ret

0000000081000052 <f4>:
    81000052:	1141                	addi	sp,sp,-16
    81000054:	e406                	sd	ra,8(sp)
    81000056:	e022                	sd	s0,0(sp)
    81000058:	0800                	addi	s0,sp,16
    8100005a:	fe5ff0ef          	jal	ra,8100003e <f5>
    8100005e:	60a2                	ld	ra,8(sp)
    81000060:	6402                	ld	s0,0(sp)
    81000062:	0141                	addi	sp,sp,16
    81000064:	8082                	ret

0000000081000066 <f3>:
    81000066:	1141                	addi	sp,sp,-16
    81000068:	e406                	sd	ra,8(sp)
    8100006a:	e022                	sd	s0,0(sp)
    8100006c:	0800                	addi	s0,sp,16
    8100006e:	fe5ff0ef          	jal	ra,81000052 <f4>
    81000072:	60a2                	ld	ra,8(sp)
    81000074:	6402                	ld	s0,0(sp)
    81000076:	0141                	addi	sp,sp,16
    81000078:	8082                	ret

000000008100007a <f2>:
    8100007a:	1141                	addi	sp,sp,-16
    8100007c:	e406                	sd	ra,8(sp)
    8100007e:	e022                	sd	s0,0(sp)
    81000080:	0800                	addi	s0,sp,16
    81000082:	fe5ff0ef          	jal	ra,81000066 <f3>
    81000086:	60a2                	ld	ra,8(sp)
    81000088:	6402                	ld	s0,0(sp)
    8100008a:	0141                	addi	sp,sp,16
    8100008c:	8082                	ret

000000008100008e <f1>:
    8100008e:	1141                	addi	sp,sp,-16
    81000090:	e406                	sd	ra,8(sp)
    81000092:	e022                	sd	s0,0(sp)
    81000094:	0800                	addi	s0,sp,16
    81000096:	fe5ff0ef          	jal	ra,8100007a <f2>
    8100009a:	60a2                	ld	ra,8(sp)
    8100009c:	6402                	ld	s0,0(sp)
    8100009e:	0141                	addi	sp,sp,16
    810000a0:	8082                	ret

00000000810000a2 <fff>:
    810000a2:	1141                	addi	sp,sp,-16
    810000a4:	e422                	sd	s0,8(sp)
    810000a6:	0800                	addi	s0,sp,16
    810000a8:	478d                	li	a5,3
    810000aa:	c11c                	sw	a5,0(a0)
    810000ac:	6422                	ld	s0,8(sp)
    810000ae:	0141                	addi	sp,sp,16
    810000b0:	8082                	ret

00000000810000b2 <ff>:
    810000b2:	1101                	addi	sp,sp,-32
    810000b4:	ec06                	sd	ra,24(sp)
    810000b6:	e822                	sd	s0,16(sp)
    810000b8:	1000                	addi	s0,sp,32
    810000ba:	fe042623          	sw	zero,-20(s0)
    810000be:	fec40513          	addi	a0,s0,-20
    810000c2:	fe1ff0ef          	jal	ra,810000a2 <fff>
    810000c6:	60e2                	ld	ra,24(sp)
    810000c8:	6442                	ld	s0,16(sp)
    810000ca:	6105                	addi	sp,sp,32
    810000cc:	8082                	ret

00000000810000ce <main>:
    810000ce:	1141                	addi	sp,sp,-16
    810000d0:	e406                	sd	ra,8(sp)
    810000d2:	e022                	sd	s0,0(sp)
    810000d4:	0800                	addi	s0,sp,16
    810000d6:	00000517          	auipc	a0,0x0
    810000da:	30250513          	addi	a0,a0,770 # 810003d8 <vsnprintf+0x206>
    810000de:	034000ef          	jal	ra,81000112 <printu>
    810000e2:	fd1ff0ef          	jal	ra,810000b2 <ff>
    810000e6:	fa9ff0ef          	jal	ra,8100008e <f1>
    810000ea:	4501                	li	a0,0
    810000ec:	088000ef          	jal	ra,81000174 <exit>
    810000f0:	4501                	li	a0,0
    810000f2:	60a2                	ld	ra,8(sp)
    810000f4:	6402                	ld	s0,0(sp)
    810000f6:	0141                	addi	sp,sp,16
    810000f8:	8082                	ret

00000000810000fa <do_user_call>:
    810000fa:	1101                	addi	sp,sp,-32
    810000fc:	ec22                	sd	s0,24(sp)
    810000fe:	1000                	addi	s0,sp,32
    81000100:	00000073          	ecall
    81000104:	fea42623          	sw	a0,-20(s0)
    81000108:	fec42503          	lw	a0,-20(s0)
    8100010c:	6462                	ld	s0,24(sp)
    8100010e:	6105                	addi	sp,sp,32
    81000110:	8082                	ret

0000000081000112 <printu>:
    81000112:	710d                	addi	sp,sp,-352
    81000114:	ee06                	sd	ra,280(sp)
    81000116:	ea22                	sd	s0,272(sp)
    81000118:	1200                	addi	s0,sp,288
    8100011a:	e40c                	sd	a1,8(s0)
    8100011c:	e810                	sd	a2,16(s0)
    8100011e:	ec14                	sd	a3,24(s0)
    81000120:	f018                	sd	a4,32(s0)
    81000122:	f41c                	sd	a5,40(s0)
    81000124:	03043823          	sd	a6,48(s0)
    81000128:	03143c23          	sd	a7,56(s0)
    8100012c:	00840693          	addi	a3,s0,8
    81000130:	fed43423          	sd	a3,-24(s0)
    81000134:	862a                	mv	a2,a0
    81000136:	10000593          	li	a1,256
    8100013a:	ee840513          	addi	a0,s0,-280
    8100013e:	094000ef          	jal	ra,810001d2 <vsnprintf>
    81000142:	0005071b          	sext.w	a4,a0
    81000146:	0ff00793          	li	a5,255
    8100014a:	02e7e263          	bltu	a5,a4,8100016e <printu+0x5c>
    8100014e:	862a                	mv	a2,a0
    81000150:	4881                	li	a7,0
    81000152:	4801                	li	a6,0
    81000154:	4781                	li	a5,0
    81000156:	4701                	li	a4,0
    81000158:	4681                	li	a3,0
    8100015a:	ee840593          	addi	a1,s0,-280
    8100015e:	04000513          	li	a0,64
    81000162:	f99ff0ef          	jal	ra,810000fa <do_user_call>
    81000166:	60f2                	ld	ra,280(sp)
    81000168:	6452                	ld	s0,272(sp)
    8100016a:	6135                	addi	sp,sp,352
    8100016c:	8082                	ret
    8100016e:	10000613          	li	a2,256
    81000172:	bff9                	j	81000150 <printu+0x3e>

0000000081000174 <exit>:
    81000174:	1141                	addi	sp,sp,-16
    81000176:	e406                	sd	ra,8(sp)
    81000178:	e022                	sd	s0,0(sp)
    8100017a:	0800                	addi	s0,sp,16
    8100017c:	85aa                	mv	a1,a0
    8100017e:	4881                	li	a7,0
    81000180:	4801                	li	a6,0
    81000182:	4781                	li	a5,0
    81000184:	4701                	li	a4,0
    81000186:	4681                	li	a3,0
    81000188:	4601                	li	a2,0
    8100018a:	04100513          	li	a0,65
    8100018e:	f6dff0ef          	jal	ra,810000fa <do_user_call>
    81000192:	60a2                	ld	ra,8(sp)
    81000194:	6402                	ld	s0,0(sp)
    81000196:	0141                	addi	sp,sp,16
    81000198:	8082                	ret

000000008100019a <print_backtrace>:
    8100019a:	1101                	addi	sp,sp,-32
    8100019c:	ec06                	sd	ra,24(sp)
    8100019e:	e822                	sd	s0,16(sp)
    810001a0:	e426                	sd	s1,8(sp)
    810001a2:	1000                	addi	s0,sp,32
    810001a4:	84aa                	mv	s1,a0
    810001a6:	00000517          	auipc	a0,0x0
    810001aa:	26250513          	addi	a0,a0,610 # 81000408 <vsnprintf+0x236>
    810001ae:	f65ff0ef          	jal	ra,81000112 <printu>
    810001b2:	4881                	li	a7,0
    810001b4:	4801                	li	a6,0
    810001b6:	4781                	li	a5,0
    810001b8:	4701                	li	a4,0
    810001ba:	4681                	li	a3,0
    810001bc:	4601                	li	a2,0
    810001be:	85a6                	mv	a1,s1
    810001c0:	04200513          	li	a0,66
    810001c4:	f37ff0ef          	jal	ra,810000fa <do_user_call>
    810001c8:	60e2                	ld	ra,24(sp)
    810001ca:	6442                	ld	s0,16(sp)
    810001cc:	64a2                	ld	s1,8(sp)
    810001ce:	6105                	addi	sp,sp,32
    810001d0:	8082                	ret

00000000810001d2 <vsnprintf>:
    810001d2:	1101                	addi	sp,sp,-32
    810001d4:	ec22                	sd	s0,24(sp)
    810001d6:	1000                	addi	s0,sp,32
    810001d8:	fed43423          	sd	a3,-24(s0)
    810001dc:	4781                	li	a5,0
    810001de:	4301                	li	t1,0
    810001e0:	4681                	li	a3,0
    810001e2:	a255                	j	81000386 <vsnprintf+0x1b4>
    810001e4:	00178713          	addi	a4,a5,1
    810001e8:	00b77863          	bgeu	a4,a1,810001f8 <vsnprintf+0x26>
    810001ec:	00f50833          	add	a6,a0,a5
    810001f0:	03000893          	li	a7,48
    810001f4:	01180023          	sb	a7,0(a6)
    810001f8:	0789                	addi	a5,a5,2
    810001fa:	00b7f763          	bgeu	a5,a1,81000208 <vsnprintf+0x36>
    810001fe:	972a                	add	a4,a4,a0
    81000200:	07800813          	li	a6,120
    81000204:	01070023          	sb	a6,0(a4)
    81000208:	fe843703          	ld	a4,-24(s0)
    8100020c:	00870813          	addi	a6,a4,8
    81000210:	ff043423          	sd	a6,-24(s0)
    81000214:	00073883          	ld	a7,0(a4)
    81000218:	eaa9                	bnez	a3,8100026a <vsnprintf+0x98>
    8100021a:	469d                	li	a3,7
    8100021c:	a035                	j	81000248 <vsnprintf+0x76>
    8100021e:	00030463          	beqz	t1,81000226 <vsnprintf+0x54>
    81000222:	869a                	mv	a3,t1
    81000224:	b7d5                	j	81000208 <vsnprintf+0x36>
    81000226:	fe843703          	ld	a4,-24(s0)
    8100022a:	00870693          	addi	a3,a4,8
    8100022e:	fed43423          	sd	a3,-24(s0)
    81000232:	00072883          	lw	a7,0(a4)
    81000236:	869a                	mv	a3,t1
    81000238:	b7c5                	j	81000218 <vsnprintf+0x46>
    8100023a:	05770713          	addi	a4,a4,87
    8100023e:	97aa                	add	a5,a5,a0
    81000240:	00e78023          	sb	a4,0(a5)
    81000244:	36fd                	addiw	a3,a3,-1
    81000246:	87c2                	mv	a5,a6
    81000248:	0206c363          	bltz	a3,8100026e <vsnprintf+0x9c>
    8100024c:	0026971b          	slliw	a4,a3,0x2
    81000250:	40e8d733          	sra	a4,a7,a4
    81000254:	8b3d                	andi	a4,a4,15
    81000256:	00178813          	addi	a6,a5,1
    8100025a:	feb875e3          	bgeu	a6,a1,81000244 <vsnprintf+0x72>
    8100025e:	4325                	li	t1,9
    81000260:	fce34de3          	blt	t1,a4,8100023a <vsnprintf+0x68>
    81000264:	03070713          	addi	a4,a4,48
    81000268:	bfd9                	j	8100023e <vsnprintf+0x6c>
    8100026a:	46bd                	li	a3,15
    8100026c:	bff1                	j	81000248 <vsnprintf+0x76>
    8100026e:	4301                	li	t1,0
    81000270:	4681                	li	a3,0
    81000272:	aa09                	j	81000384 <vsnprintf+0x1b2>
    81000274:	00030f63          	beqz	t1,81000292 <vsnprintf+0xc0>
    81000278:	fe843703          	ld	a4,-24(s0)
    8100027c:	00870693          	addi	a3,a4,8
    81000280:	fed43423          	sd	a3,-24(s0)
    81000284:	00073883          	ld	a7,0(a4)
    81000288:	0008ce63          	bltz	a7,810002a4 <vsnprintf+0xd2>
    8100028c:	8746                	mv	a4,a7
    8100028e:	4305                	li	t1,1
    81000290:	a815                	j	810002c4 <vsnprintf+0xf2>
    81000292:	fe843703          	ld	a4,-24(s0)
    81000296:	00870693          	addi	a3,a4,8
    8100029a:	fed43423          	sd	a3,-24(s0)
    8100029e:	00072883          	lw	a7,0(a4)
    810002a2:	b7dd                	j	81000288 <vsnprintf+0xb6>
    810002a4:	411008b3          	neg	a7,a7
    810002a8:	00178713          	addi	a4,a5,1
    810002ac:	00b77963          	bgeu	a4,a1,810002be <vsnprintf+0xec>
    810002b0:	97aa                	add	a5,a5,a0
    810002b2:	02d00693          	li	a3,45
    810002b6:	00d78023          	sb	a3,0(a5)
    810002ba:	87ba                	mv	a5,a4
    810002bc:	bfc1                	j	8100028c <vsnprintf+0xba>
    810002be:	87ba                	mv	a5,a4
    810002c0:	b7f1                	j	8100028c <vsnprintf+0xba>
    810002c2:	0305                	addi	t1,t1,1
    810002c4:	46a9                	li	a3,10
    810002c6:	02d74733          	div	a4,a4,a3
    810002ca:	ff65                	bnez	a4,810002c2 <vsnprintf+0xf0>
    810002cc:	fff3071b          	addiw	a4,t1,-1
    810002d0:	a029                	j	810002da <vsnprintf+0x108>
    810002d2:	46a9                	li	a3,10
    810002d4:	02d8c8b3          	div	a7,a7,a3
    810002d8:	377d                	addiw	a4,a4,-1
    810002da:	02074163          	bltz	a4,810002fc <vsnprintf+0x12a>
    810002de:	00f706b3          	add	a3,a4,a5
    810002e2:	00168813          	addi	a6,a3,1
    810002e6:	feb876e3          	bgeu	a6,a1,810002d2 <vsnprintf+0x100>
    810002ea:	4829                	li	a6,10
    810002ec:	0308e833          	rem	a6,a7,a6
    810002f0:	96aa                	add	a3,a3,a0
    810002f2:	0308081b          	addiw	a6,a6,48
    810002f6:	01068023          	sb	a6,0(a3)
    810002fa:	bfe1                	j	810002d2 <vsnprintf+0x100>
    810002fc:	979a                	add	a5,a5,t1
    810002fe:	4301                	li	t1,0
    81000300:	4681                	li	a3,0
    81000302:	a049                	j	81000384 <vsnprintf+0x1b2>
    81000304:	fe843703          	ld	a4,-24(s0)
    81000308:	00870693          	addi	a3,a4,8
    8100030c:	fed43423          	sd	a3,-24(s0)
    81000310:	6318                	ld	a4,0(a4)
    81000312:	a019                	j	81000318 <vsnprintf+0x146>
    81000314:	0705                	addi	a4,a4,1
    81000316:	87b6                	mv	a5,a3
    81000318:	00074803          	lbu	a6,0(a4)
    8100031c:	00080a63          	beqz	a6,81000330 <vsnprintf+0x15e>
    81000320:	00178693          	addi	a3,a5,1
    81000324:	feb6f8e3          	bgeu	a3,a1,81000314 <vsnprintf+0x142>
    81000328:	97aa                	add	a5,a5,a0
    8100032a:	01078023          	sb	a6,0(a5)
    8100032e:	b7dd                	j	81000314 <vsnprintf+0x142>
    81000330:	4301                	li	t1,0
    81000332:	4681                	li	a3,0
    81000334:	a881                	j	81000384 <vsnprintf+0x1b2>
    81000336:	00178713          	addi	a4,a5,1
    8100033a:	04b77063          	bgeu	a4,a1,8100037a <vsnprintf+0x1a8>
    8100033e:	fe843683          	ld	a3,-24(s0)
    81000342:	00868813          	addi	a6,a3,8
    81000346:	ff043423          	sd	a6,-24(s0)
    8100034a:	97aa                	add	a5,a5,a0
    8100034c:	0006c683          	lbu	a3,0(a3)
    81000350:	00d78023          	sb	a3,0(a5)
    81000354:	87ba                	mv	a5,a4
    81000356:	4301                	li	t1,0
    81000358:	4681                	li	a3,0
    8100035a:	a02d                	j	81000384 <vsnprintf+0x1b2>
    8100035c:	02500813          	li	a6,37
    81000360:	03070163          	beq	a4,a6,81000382 <vsnprintf+0x1b0>
    81000364:	00178813          	addi	a6,a5,1
    81000368:	04b87463          	bgeu	a6,a1,810003b0 <vsnprintf+0x1de>
    8100036c:	97aa                	add	a5,a5,a0
    8100036e:	00e78023          	sb	a4,0(a5)
    81000372:	87c2                	mv	a5,a6
    81000374:	a801                	j	81000384 <vsnprintf+0x1b2>
    81000376:	8336                	mv	t1,a3
    81000378:	a031                	j	81000384 <vsnprintf+0x1b2>
    8100037a:	87ba                	mv	a5,a4
    8100037c:	4301                	li	t1,0
    8100037e:	4681                	li	a3,0
    81000380:	a011                	j	81000384 <vsnprintf+0x1b2>
    81000382:	4685                	li	a3,1
    81000384:	0605                	addi	a2,a2,1
    81000386:	00064703          	lbu	a4,0(a2)
    8100038a:	c70d                	beqz	a4,810003b4 <vsnprintf+0x1e2>
    8100038c:	dae1                	beqz	a3,8100035c <vsnprintf+0x18a>
    8100038e:	f9d7071b          	addiw	a4,a4,-99
    81000392:	0ff77893          	zext.b	a7,a4
    81000396:	4855                	li	a6,21
    81000398:	ff1866e3          	bltu	a6,a7,81000384 <vsnprintf+0x1b2>
    8100039c:	00289713          	slli	a4,a7,0x2
    810003a0:	00000817          	auipc	a6,0x0
    810003a4:	08480813          	addi	a6,a6,132 # 81000424 <vsnprintf+0x252>
    810003a8:	9742                	add	a4,a4,a6
    810003aa:	4318                	lw	a4,0(a4)
    810003ac:	9742                	add	a4,a4,a6
    810003ae:	8702                	jr	a4
    810003b0:	87c2                	mv	a5,a6
    810003b2:	bfc9                	j	81000384 <vsnprintf+0x1b2>
    810003b4:	00b7fa63          	bgeu	a5,a1,810003c8 <vsnprintf+0x1f6>
    810003b8:	953e                	add	a0,a0,a5
    810003ba:	00050023          	sb	zero,0(a0)
    810003be:	0007851b          	sext.w	a0,a5
    810003c2:	6462                	ld	s0,24(sp)
    810003c4:	6105                	addi	sp,sp,32
    810003c6:	8082                	ret
    810003c8:	d9fd                	beqz	a1,810003be <vsnprintf+0x1ec>
    810003ca:	15fd                	addi	a1,a1,-1
    810003cc:	952e                	add	a0,a0,a1
    810003ce:	00050023          	sb	zero,0(a0)
    810003d2:	b7f5                	j	810003be <vsnprintf+0x1ec>
